(dp0
(I12
I1
tp1
(I1
I0
tp2
s(I-2
I0
tp3
(I1
I0
tp4
s(I21
I-5
tp5
(I1
I0
tp6
s(I-2
I-3
tp7
g4
s(I15
I1
tp8
g2
s(I13
I-3
tp9
(I7
I0
tp10
s(I-2
I-7
tp11
(I1
I0
tp12
s(I4
I0
tp13
g4
s(I9
I0
tp14
g2
s(I8
I-2
tp15
g4
s(I21
I-1
tp16
g6
s(I14
I1
tp17
g2
s(I1
I1
tp18
g4
s(I-2
I-6
tp19
g4
s(I-2
I-1
tp20
g4
s(I6
I0
tp21
g2
s(I11
I0
tp22
g2
s(I0
I1
tp23
(I1
I0
tp24
s(I16
I-8
tp25
(I4
I0
tp26
s(I16
I-2
tp27
g2
s(I3
I1
tp28
g2
s(I11
I-4
tp29
(I7
I1
tp30
s(I6
I-2
tp31
(I0
I0
tp32
s(I9
I-3
tp33
g4
s(I13
I0
tp34
g2
s(I18
I0
tp35
(I6
I0
tp36
s(I15
I-8
tp37
g26
s(I-2
I-9
tp38
g12
s(I2
I1
tp39
g4
s(I7
I-2
tp40
g4
s(I5
I1
tp41
g2
s(I6
I-1
tp42
g4
s(I4
I-1
tp43
(I3
I0
tp44
s(I-2
I1
tp45
g4
s(I21
I-6
tp46
g6
s(I21
I-9
tp47
(I1
I0
tp48
s(I19
I-8
tp49
g26
s(I-2
I-2
tp50
g4
s(I12
I-3
tp51
(I6
I0
tp52
s(I7
I-3
tp53
(I3
I0
tp54
s(I4
I1
tp55
g2
s(I10
I-4
tp56
(I1
I1
tp57
s(I5
I-1
tp58
(I5
I0
tp59
s(I7
I1
tp60
g2
s(I17
I1
tp61
g2
s(I21
I-3
tp62
g6
s(I13
I-2
tp63
g2
s(I1
I0
tp64
(I0
I1
tp65
s(I11
I-3
tp66
g4
s(I-2
I-5
tp67
g4
s(I6
I1
tp68
g2
s(I16
I1
tp69
g2
s(I9
I-2
tp70
g2
s(I19
I1
tp71
g2
s(I3
I0
tp72
(I4
I1
tp73
s(I8
I0
tp74
g2
s(I9
I-4
tp75
(I0
I1
tp76
s(I10
I-2
tp77
g2
s(I8
I-3
tp78
(I5
I0
tp79
s(I18
I1
tp80
g2
s(I21
I-2
tp81
g6
s(I13
I-8
tp82
(I3
I0
tp83
s(I21
I1
tp84
g6
s(I11
I-6
tp85
g12
s(I5
I0
tp86
g4
s(I10
I0
tp87
g2
s(I21
I-7
tp88
g48
s(I20
I-8
tp89
g26
s(I21
I-10
tp90
g48
s(I20
I1
tp91
g2
s(I17
I-8
tp92
g26
s(I12
I-2
tp93
g2
s(I10
I-3
tp94
g4
s(I21
I-11
tp95
g48
s(I7
I0
tp96
g2
s(I12
I0
tp97
g2
s(I21
I-4
tp98
g6
s(I7
I-1
tp99
g2
s(I13
I-1
tp100
g2
s(I-2
I-8
tp101
g12
s(I10
I-1
tp102
g2
s(I9
I1
tp103
g2
s(I19
I0
tp104
(I7
I0
tp105
s(I11
I-1
tp106
g2
s(I-2
I-4
tp107
g4
s(I8
I1
tp108
g2
s(I8
I-1
tp109
g2
s(I11
I1
tp110
g2
s(I-2
I-11
tp111
g12
s(I21
I0
tp112
g6
s(I-1
I1
tp113
g24
s(I-2
I-10
tp114
g12
s(I9
I-1
tp115
g2
s(I10
I1
tp116
g2
s(I21
I-8
tp117
g48
s(I13
I1
tp118
g2
s(I11
I-2
tp119
g2
s(I18
I-8
tp120
g26
s(I14
I-8
tp121
g26
s(I2
I0
tp122
(I2
I1
tp123
s(I12
I-1
tp124
g2
s.