(dp0
(I8
I-8
tp1
(I7
I1
tp2
s(I12
I1
tp3
(I1
I0
tp4
s(I-2
I0
tp5
(I1
I0
tp6
s(I3
I-10
tp7
(I1
I1
tp8
s(I21
I-5
tp9
(I1
I0
tp10
s(I15
I1
tp11
g4
s(I13
I-3
tp12
(I7
I0
tp13
s(I-2
I-7
tp14
(I1
I0
tp15
s(I4
I0
tp16
g6
s(I9
I0
tp17
g4
s(I8
I-1
tp18
g4
s(I21
I-1
tp19
g10
s(I14
I1
tp20
g4
s(I11
I1
tp21
g4
s(I1
I1
tp22
g6
s(I-2
I-6
tp23
g6
s(I-2
I-2
tp24
g6
s(I6
I0
tp25
g4
s(I11
I0
tp26
g4
s(I11
I-1
tp27
g4
s(I0
I1
tp28
(I1
I0
tp29
s(I7
I-3
tp30
(I3
I0
tp31
s(I16
I-2
tp32
g4
s(I3
I1
tp33
g4
s(I-2
I-9
tp34
g15
s(I6
I-1
tp35
g6
s(I9
I-3
tp36
g6
s(I13
I0
tp37
g4
s(I18
I0
tp38
(I6
I0
tp39
s(I15
I-8
tp40
(I4
I0
tp41
s(I11
I-4
tp42
(I7
I1
tp43
s(I-2
I-3
tp44
g6
s(I7
I-2
tp45
g6
s(I5
I1
tp46
g4
s(I6
I-2
tp47
(I0
I0
tp48
s(I4
I-1
tp49
(I3
I0
tp50
s(I-2
I1
tp51
g6
s(I21
I-6
tp52
g10
s(I21
I-9
tp53
(I1
I0
tp54
s(I19
I-8
tp55
g41
s(I20
I-5
tp56
(I1
I1
tp57
s(I-2
I-1
tp58
g6
s(I12
I-3
tp59
(I6
I0
tp60
s(I16
I-8
tp61
g41
s(I4
I1
tp62
g4
s(I10
I-4
tp63
(I1
I1
tp64
s(I5
I-1
tp65
(I5
I0
tp66
s(I7
I1
tp67
g4
s(I17
I1
tp68
g4
s(I21
I-3
tp69
g10
s(I13
I-2
tp70
g4
s(I1
I0
tp71
(I0
I1
tp72
s(I-2
I-10
tp73
g15
s(I-2
I-5
tp74
g6
s(I6
I1
tp75
g4
s(I16
I1
tp76
g4
s(I9
I-1
tp77
g4
s(I19
I1
tp78
g4
s(I3
I0
tp79
(I4
I1
tp80
s(I-2
I-12
tp81
(I1
I0
tp82
s(I8
I0
tp83
g4
s(I9
I-4
tp84
(I0
I1
tp85
s(I10
I-2
tp86
g4
s(I8
I-3
tp87
(I5
I0
tp88
s(I12
I-1
tp89
g4
s(I18
I1
tp90
g4
s(I21
I-2
tp91
g10
s(I13
I-8
tp92
(I3
I0
tp93
s(I21
I1
tp94
g10
s(I11
I-6
tp95
(I3
I1
tp96
s(I6
I-8
tp97
(I0
I1
tp98
s(I5
I0
tp99
g6
s(I10
I0
tp100
g4
s(I21
I-7
tp101
g54
s(I20
I-8
tp102
g41
s(I21
I-10
tp103
g54
s(I20
I1
tp104
g4
s(I19
I-5
tp105
(I0
I1
tp106
s(I17
I-8
tp107
g41
s(I2
I1
tp108
g6
s(I10
I-3
tp109
g6
s(I7
I0
tp110
g4
s(I12
I0
tp111
g4
s(I21
I-4
tp112
g10
s(I7
I-1
tp113
g4
s(I13
I-1
tp114
g4
s(I-2
I-8
tp115
g15
s(I10
I-1
tp116
g4
s(I9
I1
tp117
g4
s(I19
I0
tp118
(I7
I0
tp119
s(I11
I-2
tp120
g4
s(I2
I0
tp121
(I2
I1
tp122
s(I8
I1
tp123
g4
s(I8
I-2
tp124
g6
s(I2
I-10
tp125
g106
s(I4
I-10
tp126
(I7
I1
tp127
s(I-2
I-11
tp128
g15
s(I21
I0
tp129
g10
s(I7
I-8
tp130
(I1
I1
tp131
s(I-1
I1
tp132
g29
s(I11
I-3
tp133
g6
s(I9
I-2
tp134
g4
s(I10
I1
tp135
g4
s(I21
I-8
tp136
g54
s(I13
I1
tp137
g4
s(I21
I-11
tp138
g54
s(I18
I-8
tp139
g41
s(I14
I-8
tp140
g41
s(I-2
I-4
tp141
g6
s(I12
I-2
tp142
g4
s.