(dp0
(I8
I-8
tp1
(I7
I2
tp2
s(I12
I1
tp3
(I1
I0
tp4
s(I-2
I0
tp5
(I0
I3
tp6
s(I3
I-10
tp7
(I1
I2
tp8
s(I21
I-5
tp9
g6
s(I15
I1
tp10
g4
s(I13
I-3
tp11
(I7
I0
tp12
s(I-2
I-7
tp13
g6
s(I4
I0
tp14
(I3
I1
tp15
s(I9
I0
tp16
(I1
I1
tp17
s(I8
I-2
tp18
g17
s(I21
I-1
tp19
g6
s(I14
I1
tp20
g4
s(I2
I-10
tp21
(I0
I2
tp22
s(I1
I1
tp23
(I1
I0
tp24
s(I-2
I-6
tp25
g6
s(I-2
I-1
tp26
g6
s(I6
I0
tp27
g17
s(I11
I0
tp28
g17
s(I0
I1
tp29
(I1
I0
tp30
s(I16
I-8
tp31
(I4
I0
tp32
s(I16
I-2
tp33
g4
s(I3
I1
tp34
g4
s(I11
I-4
tp35
(I7
I2
tp36
s(I6
I-2
tp37
(I0
I0
tp38
s(I9
I-3
tp39
(I3
I1
tp40
s(I13
I0
tp41
g17
s(I18
I0
tp42
(I6
I0
tp43
s(I21
I-12
tp44
g6
s(I15
I-8
tp45
g32
s(I-2
I-9
tp46
g6
s(I-2
I-3
tp47
g6
s(I7
I-2
tp48
(I3
I1
tp49
s(I5
I1
tp50
g4
s(I6
I-1
tp51
(I0
I1
tp52
s(I4
I-1
tp53
(I3
I0
tp54
s(I-2
I1
tp55
g24
s(I21
I-6
tp56
g6
s(I21
I-9
tp57
g6
s(I19
I-8
tp58
g32
s(I18
I1
tp59
(I1
I0
tp60
s(I-2
I-2
tp61
g6
s(I12
I-3
tp62
(I6
I0
tp63
s(I7
I-3
tp64
(I3
I0
tp65
s(I4
I1
tp66
g4
s(I10
I-4
tp67
(I1
I2
tp68
s(I5
I-1
tp69
(I5
I0
tp70
s(I7
I1
tp71
g4
s(I17
I1
tp72
g4
s(I21
I-3
tp73
g6
s(I13
I-2
tp74
(I7
I1
tp75
s(I1
I0
tp76
(I0
I2
tp77
s(I11
I-3
tp78
g75
s(I-2
I-5
tp79
g6
s(I6
I1
tp80
g4
s(I16
I1
tp81
g4
s(I9
I-2
tp82
g17
s(I19
I1
tp83
g60
s(I3
I0
tp84
(I4
I2
tp85
s(I-2
I-12
tp86
g6
s(I8
I0
tp87
g17
s(I9
I-4
tp88
(I0
I2
tp89
s(I10
I-1
tp90
g17
s(I8
I-3
tp91
(I5
I0
tp92
s(I12
I-2
tp93
g17
s(I20
I-5
tp94
(I1
I2
tp95
s(I21
I-2
tp96
g6
s(I13
I-8
tp97
(I3
I0
tp98
s(I21
I1
tp99
(I1
I0
tp100
s(I11
I-6
tp101
(I3
I2
tp102
s(I6
I-8
tp103
g22
s(I5
I0
tp104
g17
s(I10
I0
tp105
g17
s(I21
I-7
tp106
g6
s(I20
I-8
tp107
g32
s(I21
I-10
tp108
g6
s(I20
I1
tp109
g4
s(I19
I-5
tp110
(I0
I2
tp111
s(I17
I-8
tp112
g32
s(I2
I1
tp113
g24
s(I10
I-3
tp114
g17
s(I21
I-11
tp115
g6
s(I7
I0
tp116
g17
s(I12
I0
tp117
g17
s(I21
I-4
tp118
g6
s(I7
I-1
tp119
g17
s(I13
I-1
tp120
g17
s(I-2
I-8
tp121
g6
s(I10
I-2
tp122
g17
s(I9
I1
tp123
g4
s(I19
I0
tp124
(I7
I0
tp125
s(I11
I-2
tp126
g17
s(I-2
I-4
tp127
g6
s(I8
I1
tp128
g4
s(I8
I-1
tp129
g17
s(I11
I1
tp130
g4
s(I4
I-10
tp131
(I7
I2
tp132
s(I-2
I-11
tp133
g6
s(I21
I0
tp134
g6
s(I7
I-8
tp135
(I1
I2
tp136
s(I-1
I1
tp137
g30
s(I-2
I-10
tp138
g6
s(I9
I-1
tp139
g17
s(I10
I1
tp140
g4
s(I21
I-8
tp141
g6
s(I13
I1
tp142
g4
s(I11
I-1
tp143
g17
s(I18
I-8
tp144
g32
s(I14
I-8
tp145
g32
s(I2
I0
tp146
(I2
I2
tp147
s(I12
I-1
tp148
g17
s.