(dp0
(I8
I-8
tp1
(I7
I1
tp2
s(I12
I1
tp3
(I1
I0
tp4
s(I-2
I0
tp5
(I1
I0
tp6
s(I3
I-10
tp7
(I1
I1
tp8
s(I21
I-5
tp9
(I1
I0
tp10
s(I15
I1
tp11
g4
s(I13
I-3
tp12
(I7
I0
tp13
s(I-2
I-7
tp14
(I1
I0
tp15
s(I4
I0
tp16
g6
s(I9
I0
tp17
g4
s(I8
I-2
tp18
g6
s(I21
I-1
tp19
g10
s(I14
I1
tp20
g4
s(I2
I-10
tp21
(I0
I1
tp22
s(I1
I1
tp23
g6
s(I-2
I-6
tp24
g6
s(I-2
I-1
tp25
g6
s(I6
I0
tp26
g4
s(I11
I0
tp27
g4
s(I0
I1
tp28
(I1
I0
tp29
s(I16
I-8
tp30
(I4
I0
tp31
s(I16
I-2
tp32
g4
s(I3
I1
tp33
g4
s(I11
I-4
tp34
(I7
I1
tp35
s(I6
I-2
tp36
(I0
I0
tp37
s(I9
I-3
tp38
g6
s(I13
I0
tp39
g4
s(I18
I0
tp40
(I6
I0
tp41
s(I21
I-12
tp42
(I1
I0
tp43
s(I15
I-8
tp44
g31
s(I-2
I-9
tp45
g15
s(I-2
I-3
tp46
g6
s(I7
I-2
tp47
g6
s(I5
I1
tp48
g4
s(I6
I-1
tp49
g6
s(I4
I-1
tp50
(I3
I0
tp51
s(I-2
I1
tp52
g6
s(I21
I-6
tp53
g10
s(I21
I-9
tp54
(I1
I0
tp55
s(I19
I-8
tp56
g31
s(I18
I1
tp57
g4
s(I-2
I-2
tp58
g6
s(I12
I-3
tp59
(I6
I0
tp60
s(I7
I-3
tp61
(I3
I0
tp62
s(I4
I1
tp63
g4
s(I10
I-4
tp64
(I1
I1
tp65
s(I5
I-1
tp66
(I5
I0
tp67
s(I7
I1
tp68
g4
s(I17
I1
tp69
g4
s(I21
I-3
tp70
g10
s(I13
I-2
tp71
g4
s(I1
I0
tp72
(I0
I1
tp73
s(I11
I-3
tp74
g6
s(I-2
I-5
tp75
g6
s(I6
I1
tp76
g4
s(I16
I1
tp77
g4
s(I9
I-2
tp78
g4
s(I19
I1
tp79
g4
s(I3
I0
tp80
(I4
I1
tp81
s(I-2
I-12
tp82
(I1
I0
tp83
s(I8
I0
tp84
g4
s(I9
I-4
tp85
(I0
I1
tp86
s(I10
I-1
tp87
g4
s(I8
I-3
tp88
(I5
I0
tp89
s(I12
I-2
tp90
g4
s(I20
I-5
tp91
(I1
I1
tp92
s(I21
I-2
tp93
g10
s(I13
I-8
tp94
(I3
I0
tp95
s(I21
I1
tp96
g10
s(I11
I-6
tp97
(I3
I1
tp98
s(I6
I-8
tp99
(I0
I1
tp100
s(I5
I0
tp101
g6
s(I10
I0
tp102
g4
s(I21
I-7
tp103
g55
s(I20
I-8
tp104
g31
s(I21
I-10
tp105
g55
s(I20
I1
tp106
g4
s(I19
I-5
tp107
g22
s(I17
I-8
tp108
g31
s(I2
I1
tp109
g6
s(I10
I-3
tp110
g6
s(I21
I-11
tp111
g55
s(I7
I0
tp112
g4
s(I12
I0
tp113
g4
s(I21
I-4
tp114
g10
s(I7
I-1
tp115
g4
s(I13
I-1
tp116
g4
s(I-2
I-8
tp117
g15
s(I10
I-2
tp118
g4
s(I9
I1
tp119
g4
s(I19
I0
tp120
(I7
I0
tp121
s(I11
I-1
tp122
g4
s(I-2
I-4
tp123
g6
s(I8
I1
tp124
g4
s(I8
I-1
tp125
g4
s(I11
I1
tp126
g4
s(I4
I-10
tp127
(I7
I1
tp128
s(I-2
I-11
tp129
g15
s(I21
I0
tp130
g10
s(I7
I-8
tp131
(I1
I1
tp132
s(I-1
I1
tp133
g29
s(I-2
I-10
tp134
g15
s(I9
I-1
tp135
g4
s(I10
I1
tp136
g4
s(I21
I-8
tp137
g55
s(I13
I1
tp138
g4
s(I11
I-2
tp139
g4
s(I18
I-8
tp140
g31
s(I14
I-8
tp141
g31
s(I2
I0
tp142
(I2
I1
tp143
s(I12
I-1
tp144
g4
s.