(dp0
(I7
I3
tp1
(I7
I0
tp2
s(I4
I7
tp3
(I1
I0
tp4
s(I6
I6
tp5
g4
s(I5
I6
tp6
g4
s(I10
I6
tp7
(I1
I0
tp8
s(I7
I7
tp9
g4
s(I0
I7
tp10
g4
s(I0
I1
tp11
(I1
I0
tp12
s(I0
I0
tp13
g12
s(I1
I6
tp14
g4
s(I3
I7
tp15
g4
s(I2
I5
tp16
g4
s(I8
I5
tp17
g8
s(I0
I3
tp18
g12
s(I16
I7
tp19
(I1
I0
tp20
s(I16
I1
tp21
g20
s(I16
I3
tp22
g20
s(I6
I7
tp23
g4
s(I3
I3
tp24
(I3
I0
tp25
s(I10
I7
tp26
g4
s(I7
I6
tp27
g4
s(I4
I4
tp28
g8
s(I12
I6
tp29
(I6
I1
tp30
s(I6
I3
tp31
(I6
I0
tp32
s(I1
I5
tp33
(I5
I0
tp34
s(I13
I7
tp35
(I1
I0
tp36
s(I3
I6
tp37
g4
s(I0
I4
tp38
g12
s(I8
I6
tp39
g8
s(I5
I3
tp40
(I1
I0
tp41
s(I9
I7
tp42
g4
s(I6
I4
tp43
g8
s(I5
I4
tp44
g8
s(I2
I6
tp45
g4
s(I16
I6
tp46
g20
s(I16
I4
tp47
g20
s(I4
I5
tp48
g4
s(I12
I7
tp49
g4
s(I5
I5
tp50
g4
s(I16
I2
tp51
g20
s(I13
I6
tp52
(I7
I1
tp53
s(I7
I5
tp54
g8
s(I0
I5
tp55
g12
s(I15
I7
tp56
g36
s(I8
I7
tp57
g4
s(I9
I6
tp58
g8
s(I6
I5
tp59
g4
s(I3
I5
tp60
g4
s(I2
I7
tp61
g4
s(I11
I7
tp62
g4
s(I10
I5
tp63
(I7
I0
tp64
s(I16
I5
tp65
g20
s(I4
I6
tp66
g4
s(I5
I7
tp67
g4
s(I14
I7
tp68
g36
s(I0
I2
tp69
g12
s(I7
I4
tp70
g8
s(I0
I6
tp71
g4
s(I16
I0
tp72
g20
s(I4
I3
tp73
(I5
I0
tp74
s(I1
I7
tp75
g4
s(I9
I5
tp76
(I6
I0
tp77
s(I3
I4
tp78
g8
s(I2
I4
tp79
(I0
I0
tp80
s(I11
I6
tp81
(I5
I1
tp82
s(I8
I4
tp83
(I2
I0
tp84
s.