(dp0
(I7
I3
tp1
(I7
I0
tp2
s(I4
I7
tp3
(I1
I0
tp4
s(I6
I6
tp5
g4
s(I5
I6
tp6
g4
s(I10
I6
tp7
(I1
I0
tp8
s(I7
I7
tp9
g4
s(I0
I7
tp10
g4
s(I1
I6
tp11
g4
s(I3
I7
tp12
g4
s(I2
I5
tp13
g4
s(I8
I5
tp14
g8
s(I16
I7
tp15
(I5
I1
tp16
s(I6
I7
tp17
g4
s(I3
I3
tp18
(I3
I0
tp19
s(I10
I7
tp20
g4
s(I7
I6
tp21
g4
s(I4
I4
tp22
g8
s(I12
I6
tp23
(I6
I1
tp24
s(I6
I3
tp25
(I6
I0
tp26
s(I1
I5
tp27
(I5
I0
tp28
s(I13
I7
tp29
(I1
I0
tp30
s(I3
I6
tp31
g4
s(I8
I6
tp32
g8
s(I3
I5
tp33
g4
s(I9
I7
tp34
g4
s(I6
I4
tp35
g8
s(I5
I4
tp36
g8
s(I2
I6
tp37
g4
s(I4
I5
tp38
g4
s(I12
I7
tp39
g4
s(I5
I5
tp40
g4
s(I13
I6
tp41
(I7
I1
tp42
s(I7
I5
tp43
g8
s(I0
I5
tp44
(I3
I0
tp45
s(I15
I7
tp46
g30
s(I8
I7
tp47
g4
s(I9
I6
tp48
g8
s(I6
I5
tp49
g4
s(I5
I3
tp50
(I1
I0
tp51
s(I2
I7
tp52
g4
s(I11
I7
tp53
g4
s(I10
I5
tp54
(I7
I0
tp55
s(I4
I6
tp56
g4
s(I5
I7
tp57
g4
s(I14
I7
tp58
g30
s(I7
I4
tp59
g8
s(I0
I6
tp60
g4
s(I4
I3
tp61
(I5
I0
tp62
s(I1
I7
tp63
g4
s(I9
I5
tp64
(I6
I0
tp65
s(I3
I4
tp66
g8
s(I2
I4
tp67
(I0
I0
tp68
s(I11
I6
tp69
(I5
I1
tp70
s(I8
I4
tp71
(I2
I0
tp72
s.