(dp0
(I16
I6
tp1
(I1
I0
tp2
s(I4
I7
tp3
g2
s(I5
I6
tp4
(I1
I0
tp5
s(I7
I7
tp6
g2
s(I0
I7
tp7
g2
s(I12
I5
tp8
(I1
I0
tp9
s(I3
I7
tp10
g2
s(I0
I3
tp11
g2
s(I16
I7
tp12
g2
s(I16
I1
tp13
g2
s(I6
I7
tp14
g2
s(I5
I5
tp15
(I3
I0
tp16
s(I11
I5
tp17
(I1
I0
tp18
s(I10
I7
tp19
g2
s(I16
I3
tp20
g2
s(I13
I7
tp21
g2
s(I3
I6
tp22
(I3
I0
tp23
s(I0
I4
tp24
g2
s(I9
I7
tp25
g2
s(I0
I1
tp26
g2
s(I0
I0
tp27
g2
s(I16
I4
tp28
g2
s(I12
I7
tp29
g2
s(I16
I2
tp30
g2
s(I13
I6
tp31
(I1
I0
tp32
s(I16
I0
tp33
g2
s(I0
I5
tp34
g2
s(I15
I7
tp35
g2
s(I8
I7
tp36
g2
s(I14
I6
tp37
(I6
I0
tp38
s(I6
I5
tp39
(I5
I0
tp40
s(I2
I7
tp41
g2
s(I11
I7
tp42
g2
s(I16
I5
tp43
g2
s(I4
I6
tp44
g40
s(I9
I2
tp45
g18
s(I5
I7
tp46
g2
s(I14
I7
tp47
g2
s(I13
I5
tp48
g38
s(I7
I4
tp49
(I3
I0
tp50
s(I0
I6
tp51
g2
s(I7
I5
tp52
g18
s(I1
I7
tp53
g2
s(I0
I2
tp54
g2
s.