(dp0
(I12
I1
tp1
(I1
I0
tp2
s(I-2
I0
tp3
(I1
I0
tp4
s(I21
I-5
tp5
(I1
I0
tp6
s(I15
I1
tp7
g2
s(I13
I-3
tp8
(I7
I0
tp9
s(I-2
I-7
tp10
(I1
I0
tp11
s(I4
I0
tp12
g4
s(I9
I0
tp13
g2
s(I8
I-2
tp14
g4
s(I21
I-1
tp15
g6
s(I14
I1
tp16
g2
s(I1
I1
tp17
g4
s(I-2
I-6
tp18
g4
s(I-2
I-1
tp19
g4
s(I6
I0
tp20
g2
s(I11
I0
tp21
g2
s(I0
I1
tp22
(I1
I0
tp23
s(I16
I-8
tp24
(I4
I0
tp25
s(I16
I-2
tp26
g2
s(I3
I1
tp27
g2
s(I11
I-4
tp28
(I7
I1
tp29
s(I6
I-2
tp30
(I0
I0
tp31
s(I9
I-3
tp32
g4
s(I13
I0
tp33
g2
s(I18
I0
tp34
(I6
I0
tp35
s(I15
I-8
tp36
g25
s(I-2
I-9
tp37
g11
s(I-2
I-3
tp38
g4
s(I7
I-2
tp39
g4
s(I5
I1
tp40
g2
s(I6
I-1
tp41
g4
s(I4
I-1
tp42
(I3
I0
tp43
s(I-2
I1
tp44
g4
s(I21
I-6
tp45
g6
s(I21
I-9
tp46
(I1
I0
tp47
s(I19
I-8
tp48
g25
s(I-2
I-2
tp49
g4
s(I12
I-3
tp50
(I6
I0
tp51
s(I7
I-3
tp52
(I3
I0
tp53
s(I4
I1
tp54
g2
s(I10
I-4
tp55
(I1
I1
tp56
s(I5
I-1
tp57
(I5
I0
tp58
s(I7
I1
tp59
g2
s(I17
I1
tp60
g2
s(I21
I-3
tp61
g6
s(I13
I-2
tp62
g2
s(I1
I0
tp63
(I0
I1
tp64
s(I11
I-3
tp65
g4
s(I-2
I-5
tp66
g4
s(I6
I1
tp67
g2
s(I16
I1
tp68
g2
s(I9
I-2
tp69
g2
s(I19
I1
tp70
g2
s(I3
I0
tp71
(I4
I1
tp72
s(I8
I0
tp73
g2
s(I9
I-4
tp74
(I0
I1
tp75
s(I10
I-2
tp76
g2
s(I8
I-3
tp77
(I5
I0
tp78
s(I12
I-2
tp79
g2
s(I18
I1
tp80
g2
s(I21
I-2
tp81
g6
s(I13
I-8
tp82
(I3
I0
tp83
s(I21
I1
tp84
g6
s(I11
I-6
tp85
g11
s(I5
I0
tp86
g4
s(I10
I0
tp87
g2
s(I21
I-7
tp88
g47
s(I20
I-8
tp89
g25
s(I21
I-10
tp90
g47
s(I20
I1
tp91
g2
s(I17
I-8
tp92
g25
s(I2
I1
tp93
g4
s(I10
I-3
tp94
g4
s(I21
I-11
tp95
g47
s(I7
I0
tp96
g2
s(I12
I0
tp97
g2
s(I21
I-4
tp98
g6
s(I7
I-1
tp99
g2
s(I13
I-1
tp100
g2
s(I-2
I-8
tp101
g11
s(I10
I-1
tp102
g2
s(I9
I1
tp103
g2
s(I19
I0
tp104
(I7
I0
tp105
s(I11
I-1
tp106
g2
s(I-2
I-4
tp107
g4
s(I8
I1
tp108
g2
s(I8
I-1
tp109
g2
s(I11
I1
tp110
g2
s(I-2
I-11
tp111
g11
s(I21
I0
tp112
g6
s(I-1
I1
tp113
g23
s(I-2
I-10
tp114
g11
s(I9
I-1
tp115
g2
s(I10
I1
tp116
g2
s(I21
I-8
tp117
g47
s(I13
I1
tp118
g2
s(I11
I-2
tp119
g2
s(I18
I-8
tp120
g25
s(I14
I-8
tp121
g25
s(I2
I0
tp122
(I2
I1
tp123
s(I12
I-1
tp124
g2
s.