(dp0
(I7
I3
tp1
(I6
I1
tp2
s(I4
I7
tp3
(I1
I0
tp4
s(I1
I3
tp5
(I1
I1
tp6
s(I12
I1
tp7
(I1
I1
tp8
s(I16
I6
tp9
(I1
I0
tp10
s(I5
I6
tp11
g4
s(I10
I6
tp12
g4
s(I16
I2
tp13
g10
s(I0
I7
tp14
g4
s(I15
I1
tp15
g8
s(I2
I6
tp16
g4
s(I1
I6
tp17
g4
s(I9
I4
tp18
(I6
I0
tp19
s(I3
I7
tp20
g4
s(I0
I3
tp21
g10
s(I8
I5
tp22
g4
s(I2
I5
tp23
g4
s(I16
I7
tp24
g10
s(I7
I4
tp25
g4
s(I13
I1
tp26
g8
s(I6
I7
tp27
g4
s(I3
I3
tp28
g6
s(I11
I5
tp29
(I2
I0
tp30
s(I10
I7
tp31
g4
s(I16
I3
tp32
g10
s(I4
I4
tp33
g4
s(I12
I6
tp34
g30
s(I6
I3
tp35
(I3
I1
tp36
s(I1
I5
tp37
g4
s(I7
I6
tp38
g4
s(I13
I7
tp39
g10
s(I3
I6
tp40
g4
s(I0
I4
tp41
g4
s(I8
I6
tp42
g4
s(I3
I5
tp43
g4
s(I9
I7
tp44
g4
s(I6
I4
tp45
g4
s(I5
I4
tp46
g4
s(I0
I0
tp47
g10
s(I6
I6
tp48
g4
s(I10
I4
tp49
(I7
I0
tp50
s(I2
I7
tp51
g4
s(I16
I4
tp52
g10
s(I4
I5
tp53
g4
s(I12
I7
tp54
g10
s(I8
I3
tp55
(I7
I1
tp56
s(I1
I4
tp57
g4
s(I7
I7
tp58
g4
s(I16
I0
tp59
g10
s(I2
I3
tp60
g6
s(I15
I7
tp61
g10
s(I8
I7
tp62
g4
s(I9
I6
tp63
g4
s(I6
I5
tp64
g4
s(I5
I3
tp65
g36
s(I0
I1
tp66
g10
s(I11
I7
tp67
g4
s(I10
I5
tp68
g10
s(I14
I1
tp69
g8
s(I16
I5
tp70
g10
s(I4
I6
tp71
g4
s(I5
I5
tp72
g4
s(I5
I7
tp73
g4
s(I14
I7
tp74
g10
s(I0
I5
tp75
g4
s(I2
I4
tp76
g4
s(I16
I1
tp77
g10
s(I0
I6
tp78
g4
s(I7
I5
tp79
g4
s(I4
I3
tp80
(I2
I1
tp81
s(I1
I7
tp82
g4
s(I11
I1
tp83
g8
s(I9
I5
tp84
g10
s(I3
I4
tp85
g4
s(I0
I2
tp86
g10
s(I11
I6
tp87
g10
s(I8
I4
tp88
g10
s.