(dp0
(I-4
I5
tp1
(I1
I0
tp2
s(I-3
I8
tp3
g2
s(I17
I7
tp4
(I7
I1
tp5
s(I19
I4
tp6
g2
s(I0
I7
tp7
(I0
I0
tp8
s(I1
I6
tp9
g8
s(I3
I7
tp10
(I1
I0
tp11
s(I2
I5
tp12
g8
s(I8
I5
tp13
(I6
I1
tp14
s(I5
I8
tp15
(I1
I0
tp16
s(I10
I8
tp17
g16
s(I6
I7
tp18
g11
s(I5
I5
tp19
g11
s(I10
I7
tp20
g11
s(I7
I6
tp21
g11
s(I12
I6
tp22
(I7
I1
tp23
s(I13
I7
tp24
(I1
I0
tp25
s(I19
I3
tp26
g2
s(I2
I6
tp27
g11
s(I4
I5
tp28
g11
s(I7
I5
tp29
(I5
I1
tp30
s(I-4
I1
tp31
(I1
I0
tp32
s(I7
I8
tp33
g16
s(I14
I8
tp34
g16
s(I12
I8
tp35
g16
s(I19
I8
tp36
g2
s(I17
I8
tp37
g2
s(I-4
I6
tp38
g2
s(I16
I7
tp39
(I6
I1
tp40
s(I19
I7
tp41
g2
s(I3
I6
tp42
g11
s(I8
I6
tp43
g11
s(I9
I7
tp44
g11
s(I6
I4
tp45
(I2
I0
tp46
s(I5
I4
tp47
g11
s(I4
I6
tp48
g11
s(I12
I7
tp49
g11
s(I19
I2
tp50
g2
s(I15
I7
tp51
(I5
I1
tp52
s(I0
I8
tp53
g2
s(I3
I5
tp54
g11
s(I2
I7
tp55
g11
s(I-4
I-1
tp56
g16
s(I5
I7
tp57
g11
s(I-2
I8
tp58
g2
s(I-4
I8
tp59
g2
s(I4
I8
tp60
g16
s(I2
I8
tp61
g16
s(I9
I8
tp62
g16
s(I-4
I-2
tp63
g16
s(I-4
I2
tp64
g32
s(I-4
I7
tp65
g2
s(I19
I6
tp66
g2
s(I8
I7
tp67
g11
s(I9
I6
tp68
(I1
I0
tp69
s(I6
I5
tp70
g11
s(I5
I3
tp71
g46
s(I11
I7
tp72
g11
s(I-4
I4
tp73
g2
s(I6
I8
tp74
g16
s(I11
I8
tp75
g16
s(I16
I8
tp76
g16
s(I14
I7
tp77
g25
s(I19
I5
tp78
g2
s(I1
I7
tp79
g11
s(I3
I4
tp80
g8
s(I4
I7
tp81
g11
s(I6
I6
tp82
g11
s(I5
I6
tp83
g11
s(I10
I6
tp84
(I5
I1
tp85
s(I7
I7
tp86
g11
s(I-1
I8
tp87
g2
s(I15
I8
tp88
g16
s(I13
I8
tp89
g16
s(I18
I8
tp90
g2
s(I4
I4
tp91
g11
s(I-4
I3
tp92
g2
s(I-4
I-3
tp93
(I1
I0
tp94
s(I-4
I0
tp95
g16
s(I3
I8
tp96
g16
s(I1
I8
tp97
g16
s(I8
I8
tp98
g16
s(I4
I3
tp99
g8
s(I9
I5
tp100
(I7
I1
tp101
s(I11
I6
tp102
(I6
I1
tp103
s.