(dp0
(I4
I7
tp1
(I1
I0
tp2
s(I6
I6
tp3
g2
s(I5
I6
tp4
g2
s(I10
I6
tp5
(I5
I1
tp6
s(I7
I7
tp7
g2
s(I0
I7
tp8
(I0
I0
tp9
s(I1
I6
tp10
g9
s(I3
I7
tp11
g2
s(I2
I5
tp12
g9
s(I8
I5
tp13
(I6
I1
tp14
s(I16
I7
tp15
(I6
I1
tp16
s(I6
I7
tp17
g2
s(I5
I5
tp18
g2
s(I10
I7
tp19
g2
s(I7
I6
tp20
g2
s(I4
I4
tp21
g2
s(I12
I6
tp22
(I7
I1
tp23
s(I13
I7
tp24
(I1
I0
tp25
s(I3
I6
tp26
g2
s(I8
I6
tp27
g2
s(I3
I5
tp28
g2
s(I9
I7
tp29
g2
s(I6
I4
tp30
(I2
I0
tp31
s(I5
I4
tp32
g2
s(I2
I6
tp33
g2
s(I4
I5
tp34
g2
s(I12
I7
tp35
g2
s(I7
I5
tp36
(I5
I1
tp37
s(I15
I7
tp38
(I5
I1
tp39
s(I8
I7
tp40
g2
s(I9
I6
tp41
(I1
I0
tp42
s(I6
I5
tp43
g2
s(I5
I3
tp44
g31
s(I2
I7
tp45
g2
s(I11
I7
tp46
g2
s(I4
I6
tp47
g2
s(I5
I7
tp48
g2
s(I14
I7
tp49
g25
s(I4
I3
tp50
g9
s(I1
I7
tp51
g2
s(I9
I5
tp52
(I7
I1
tp53
s(I3
I4
tp54
g9
s(I11
I6
tp55
(I6
I1
tp56
s.